BL51 BANKED LINKER/LOCATER V6.22                                                        03/17/2019  20:08:43  PAGE 1


BL51 BANKED LINKER/LOCATER V6.22, INVOKED BY:
C:\KEIL\C51\BIN\BL51.EXE STARTUP.obj, test.obj TO test


MEMORY MODEL: SMALL


INPUT MODULES INCLUDED:
  STARTUP.obj (?C_STARTUP)
  test.obj (TEST)
  C:\KEIL\C51\LIB\C51S.LIB (?C?UIDIV)


LINK MAP OF MODULE:  test (?C_STARTUP)


            TYPE    BASE      LENGTH    RELOCATION   SEGMENT NAME
            -----------------------------------------------------

            * * * * * * *   D A T A   M E M O R Y   * * * * * * *
            REG     0000H     0008H     ABSOLUTE     "REG BANK 0"
            DATA    0008H     0004H     UNIT         _DATA_GROUP_
            IDATA   000CH     0001H     UNIT         ?STACK

            * * * * * * *   C O D E   M E M O R Y   * * * * * * *
            CODE    0000H     0003H     ABSOLUTE     
            CODE    0003H     0055H     UNIT         ?C?LIB_CODE
            CODE    0058H     0052H     UNIT         ?PR?MAIN?TEST
            CODE    00AAH     0023H     UNIT         ?PR?DELAY2?TEST
            CODE    00CDH     001DH     UNIT         ?PR?DELAY?TEST
            CODE    00EAH     000CH     UNIT         ?C_C51STARTUP
            CODE    00F6H     000AH     UNIT         ?CO?TEST



OVERLAY MAP OF MODULE:   test (?C_STARTUP)


SEGMENT                          DATA_GROUP 
  +--> CALLED SEGMENT          START    LENGTH
----------------------------------------------
?C_C51STARTUP                  -----    -----
  +--> ?PR?MAIN?TEST

?PR?MAIN?TEST                  0008H    0004H
  +--> ?CO?TEST
  +--> ?PR?DELAY2?TEST
  +--> ?PR?DELAY?TEST



SYMBOL TABLE OF MODULE:  test (?C_STARTUP)

  VALUE           TYPE          NAME
  ----------------------------------

  -------         MODULE        ?C_STARTUP
  C:00EAH         SEGMENT       ?C_C51STARTUP
BL51 BANKED LINKER/LOCATER V6.22                                                      03/17/2019  20:08:43  PAGE 2


  I:000CH         SEGMENT       ?STACK
  C:0000H         PUBLIC        ?C_STARTUP
  D:00E0H         SYMBOL        ACC
  D:00F0H         SYMBOL        B
  D:0083H         SYMBOL        DPH
  D:0082H         SYMBOL        DPL
  N:0000H         SYMBOL        IBPSTACK
  N:0100H         SYMBOL        IBPSTACKTOP
  N:0080H         SYMBOL        IDATALEN
  C:00EDH         SYMBOL        IDATALOOP
  N:0000H         SYMBOL        PBPSTACK
  N:0100H         SYMBOL        PBPSTACKTOP
  N:0000H         SYMBOL        PDATALEN
  N:0000H         SYMBOL        PDATASTART
  N:0000H         SYMBOL        PPAGE
  N:0000H         SYMBOL        PPAGEENABLE
  D:00A0H         SYMBOL        PPAGE_SFR
  D:0081H         SYMBOL        SP
  C:00EAH         SYMBOL        STARTUP1
  N:0000H         SYMBOL        XBPSTACK
  N:0000H         SYMBOL        XBPSTACKTOP
  N:0000H         SYMBOL        XDATALEN
  N:0000H         SYMBOL        XDATASTART
  C:0000H         LINE#         126
  C:00EAH         LINE#         133
  C:00ECH         LINE#         134
  C:00EDH         LINE#         135
  C:00EEH         LINE#         136
  C:00F0H         LINE#         185
  C:00F3H         LINE#         196
  -------         ENDMOD        ?C_STARTUP

  -------         MODULE        TEST
  C:0000H         SYMBOL        _ICE_DUMMY_
  D:0090H         PUBLIC        P1
  D:00B0H         PUBLIC        P3
  C:00CDH         PUBLIC        delay
  C:0058H         PUBLIC        main
  C:00B0H         PUBLIC        delay2
  B:0090H.1       PUBLIC        A1
  B:0090H.0       PUBLIC        B1
  -------         PROC          DELAY
  -------         DO            
  D:0006H         SYMBOL        i
  D:0004H         SYMBOL        j
  -------         ENDDO         
  C:00CDH         LINE#         4
  C:00CDH         LINE#         5
  C:00CDH         LINE#         6
  C:00D0H         LINE#         7
  C:00D0H         LINE#         8
  C:00E9H         LINE#         9
  -------         ENDPROC       DELAY
  -------         PROC          L?0026
  -------         ENDPROC       L?0026
  -------         PROC          DELAY2
  -------         DO            
BL51 BANKED LINKER/LOCATER V6.22                                                      03/17/2019  20:08:43  PAGE 3


  D:0006H         SYMBOL        i
  D:0004H         SYMBOL        j
  -------         ENDDO         
  C:00B0H         LINE#         10
  C:00B0H         LINE#         11
  C:00B0H         LINE#         12
  C:00B3H         LINE#         13
  C:00B3H         LINE#         14
  C:00CCH         LINE#         15
  -------         ENDPROC       DELAY2
  -------         PROC          MAIN
  -------         DO            
  C:00F6H         SYMBOL        table
  D:0002H         SYMBOL        i
  D:0008H         SYMBOL        shi
  D:000AH         SYMBOL        ge
  -------         ENDDO         
  C:0058H         LINE#         16
  C:0058H         LINE#         17
  C:0058H         LINE#         21
  C:0058H         LINE#         22
  C:005CH         LINE#         23
  C:006BH         LINE#         24
  C:007AH         LINE#         25
  C:007EH         LINE#         26
  C:0088H         LINE#         27
  C:008BH         LINE#         28
  C:008FH         LINE#         29
  C:0099H         LINE#         30
  C:009CH         LINE#         31
  C:009FH         LINE#         32
  -------         ENDPROC       MAIN
  -------         ENDMOD        TEST

  -------         MODULE        ?C?UIDIV
  C:0003H         PUBLIC        ?C?UIDIV
  -------         ENDMOD        ?C?UIDIV

Program Size: data=13.0 xdata=0 code=256
LINK/LOCATE RUN COMPLETE.  0 WARNING(S),  0 ERROR(S)
